target datalayout = "e-m:e-p270:32:32-p271:32:32-p272:64:64-i64:64-i128:128-f80:128-n8:16:32:64-S128"
target triple = "x86_64-pc-linux-gnu"

%class.oopDesc = type { %class.markWord, %"union.oopDesc::_metadata" }
%class.markWord = type { i64 }
%"union.oopDesc::_metadata" = type { ptr }
%class.anon.8 = type { i8 }

@UseCompressedClassPointers = external global i8, align 1
@UseCompressedOops = external global i8, align 1
@_type2aelembytes = external global [20 x i32], align 16

; Function Attrs: mustprogress nounwind uwtable
define linkonce_odr hidden noundef i64 @_ZZN7oopDesc21klass_offset_in_bytesEvENKUlvE_clEv(ptr noundef nonnull align 1 dereferenceable(1) %0) #1 comdat align 2 {
  %2 = alloca ptr, align 8
  %3 = alloca [16 x i8], align 16
  %4 = alloca ptr, align 8
  %5 = alloca ptr, align 8
  store ptr %0, ptr %2, align 8
  %6 = getelementptr inbounds [16 x i8], ptr %3, i64 0, i64 0
  store ptr %6, ptr %4, align 8
  %7 = load ptr, ptr %4, align 8
  %8 = getelementptr inbounds %class.oopDesc, ptr %7, i32 0, i32 1
  store ptr %8, ptr %5, align 8
  %9 = load ptr, ptr %5, align 8
  %10 = getelementptr inbounds [16 x i8], ptr %3, i64 0, i64 0
  %11 = ptrtoint ptr %9 to i64
  %12 = ptrtoint ptr %10 to i64
  %13 = sub i64 %11, %12
  ret i64 %13
}

; Function Attrs: mustprogress nounwind uwtable
define linkonce_odr hidden noundef i32 @_ZN7oopDesc21klass_offset_in_bytesEv() #1 comdat align 2 {
  %1 = alloca %class.anon.8, align 1
  %2 = call noundef i64 @_ZZN7oopDesc21klass_offset_in_bytesEvENKUlvE_clEv(ptr noundef nonnull align 1 dereferenceable(1) %1)
  %3 = trunc i64 %2 to i32
  ret i32 %3
}

; Function Attrs: mustprogress nounwind uwtable
define linkonce_odr hidden noundef i32 @_Z23count_trailing_zeros_64m(i64 noundef %0) #1 comdat {
  %2 = alloca i64, align 8
  store i64 %0, ptr %2, align 8
  %3 = load i64, ptr %2, align 8
  %4 = call i64 @llvm.cttz.i64(i64 %3, i1 true)
  %5 = trunc i64 %4 to i32
  ret i32 %5
}

; Function Attrs: mustprogress nounwind uwtable
define linkonce_odr hidden noundef i32 @_ZN7oopDesc25klass_gap_offset_in_bytesEv() #1 comdat align 2 {
  %1 = call noundef i32 @_ZN7oopDesc21klass_offset_in_bytesEv()
  %2 = sext i32 %1 to i64
  %3 = add i64 %2, 4
  %4 = trunc i64 %3 to i32
  ret i32 %4
}

; Function Attrs: mustprogress nounwind uwtable
define linkonce_odr hidden noundef i32 @_Z20count_trailing_zerosImTnNSt9enable_ifIXcvbsr3std11is_integralIT_EE5valueEiE4typeELi0ETnNS0_IXcvblestS1_Lm8EEiE4typeELi0EEjS1_(i64 noundef %0) #1 comdat {
  %2 = alloca i64, align 8
  store i64 %0, ptr %2, align 8
  %3 = load i64, ptr %2, align 8
  %4 = call noundef i32 @_Z23count_trailing_zeros_64m(i64 noundef %3)
  ret i32 %4
}

; Function Attrs: mustprogress nounwind uwtable
define linkonce_odr hidden noundef i64 @_Z10align_downImiTnNSt9enable_ifIXcvbsr3std11is_integralIT_EE5valueEiE4typeELi0EES1_S1_T0_(i64 noundef %0, i32 noundef %1) #1 comdat {
  %3 = alloca i64, align 8
  %4 = alloca i32, align 4
  %5 = alloca i64, align 8
  store i64 %0, ptr %3, align 8
  store i32 %1, ptr %4, align 4
  %6 = load i64, ptr %3, align 8
  %7 = load i32, ptr %4, align 4
  %8 = call noundef i32 @_ZL14alignment_maskIiTnNSt9enable_ifIXcvbsr3std11is_integralIT_EE5valueEiE4typeELi0EES1_S1_(i32 noundef %7)
  %9 = sext i32 %8 to i64
  %10 = xor i64 %9, -1
  %11 = and i64 %6, %10
  store i64 %11, ptr %5, align 8
  %12 = load i64, ptr %5, align 8
  ret i64 %12
}

; Function Attrs: mustprogress nounwind uwtable
define linkonce_odr hidden noundef i64 @_Z12checked_castImmET_T0_(i64 noundef %0) #1 comdat {
  %2 = alloca i64, align 8
  %3 = alloca i64, align 8
  store i64 %0, ptr %2, align 8
  %4 = load i64, ptr %2, align 8
  store i64 %4, ptr %3, align 8
  %5 = load i64, ptr %3, align 8
  ret i64 %5
}

; Function Attrs: mustprogress nounwind uwtable
define internal noundef i32 @_ZL14alignment_maskIiTnNSt9enable_ifIXcvbsr3std11is_integralIT_EE5valueEiE4typeELi0EES1_S1_(i32 noundef %0) #1 {
  %2 = alloca i32, align 4
  store i32 %0, ptr %2, align 4
  %3 = load i32, ptr %2, align 4
  %4 = sub nsw i32 %3, 1
  ret i32 %4
}

; Function Attrs: mustprogress nounwind uwtable
define linkonce_odr hidden noundef i32 @_ZN12arrayOopDesc22length_offset_in_bytesEv() #1 comdat align 2 {
  %1 = load i8, ptr @UseCompressedClassPointers, align 1
  %2 = trunc i8 %1 to i1
  br i1 %2, label %3, label %6

3:                                                ; preds = %0
  %4 = call noundef i32 @_ZN7oopDesc25klass_gap_offset_in_bytesEv()
  %5 = sext i32 %4 to i64
  br label %7

6:                                                ; preds = %0
  br label %7

7:                                                ; preds = %6, %3
  %8 = phi i64 [ %5, %3 ], [ 16, %6 ]
  %9 = trunc i64 %8 to i32
  ret i32 %9
}

; Function Attrs: mustprogress nounwind uwtable
define linkonce_odr hidden noundef i32 @_Z11log2i_exactImTnNSt9enable_ifIXcvbsr3std11is_integralIT_EE5valueEiE4typeELi0EEiS1_(i64 noundef %0) #1 comdat {
  %2 = alloca i64, align 8
  store i64 %0, ptr %2, align 8
  %3 = load i64, ptr %2, align 8
  %4 = call noundef i32 @_Z20count_trailing_zerosImTnNSt9enable_ifIXcvbsr3std11is_integralIT_EE5valueEiE4typeELi0ETnNS0_IXcvblestS1_Lm8EEiE4typeELi0EEjS1_(i64 noundef %3)
  ret i32 %4
}

; Function Attrs: mustprogress nounwind uwtable
define linkonce_odr hidden noundef i64 @_Z8align_upImiTnNSt9enable_ifIXcvbsr3std11is_integralIT_EE5valueEiE4typeELi0EES1_S1_T0_(i64 noundef %0, i32 noundef %1) #1 comdat {
  %3 = alloca i64, align 8
  %4 = alloca i32, align 4
  %5 = alloca i64, align 8
  store i64 %0, ptr %3, align 8
  store i32 %1, ptr %4, align 4
  %6 = load i64, ptr %3, align 8
  %7 = load i32, ptr %4, align 4
  %8 = call noundef i32 @_ZL14alignment_maskIiTnNSt9enable_ifIXcvbsr3std11is_integralIT_EE5valueEiE4typeELi0EES1_S1_(i32 noundef %7)
  %9 = sext i32 %8 to i64
  %10 = add i64 %6, %9
  %11 = call noundef i64 @_Z12checked_castImmET_T0_(i64 noundef %10)
  store i64 %11, ptr %5, align 8
  %12 = load i64, ptr %5, align 8
  %13 = load i32, ptr %4, align 4
  %14 = call noundef i64 @_Z10align_downImiTnNSt9enable_ifIXcvbsr3std11is_integralIT_EE5valueEiE4typeELi0EES1_S1_T0_(i64 noundef %12, i32 noundef %13)
  ret i64 %14
}

; Function Attrs: mustprogress nounwind uwtable
define linkonce_odr hidden noundef zeroext i1 @_ZN12arrayOopDesc30element_type_should_be_alignedE9BasicType(i8 noundef zeroext %0) #1 comdat align 2 {
  %2 = alloca i1, align 1
  %3 = alloca i8, align 1
  store i8 %0, ptr %3, align 1
  %4 = load i8, ptr %3, align 1
  %5 = zext i8 %4 to i32
  %6 = icmp eq i32 %5, 12
  br i1 %6, label %11, label %7

7:                                                ; preds = %1
  %8 = load i8, ptr %3, align 1
  %9 = zext i8 %8 to i32
  %10 = icmp eq i32 %9, 13
  br i1 %10, label %11, label %15

11:                                               ; preds = %7, %1
  %12 = load i8, ptr @UseCompressedOops, align 1
  %13 = trunc i8 %12 to i1
  %14 = xor i1 %13, true
  store i1 %14, ptr %2, align 1
  br label %25

15:                                               ; preds = %7
  %16 = load i8, ptr %3, align 1
  %17 = zext i8 %16 to i32
  %18 = icmp eq i32 %17, 7
  br i1 %18, label %23, label %19

19:                                               ; preds = %15
  %20 = load i8, ptr %3, align 1
  %21 = zext i8 %20 to i32
  %22 = icmp eq i32 %21, 11
  br label %23

23:                                               ; preds = %19, %15
  %24 = phi i1 [ true, %15 ], [ %22, %19 ]
  store i1 %24, ptr %2, align 1
  br label %25

25:                                               ; preds = %23, %11
  %26 = load i1, ptr %2, align 1
  ret i1 %26
}

; Function Attrs: mustprogress nounwind uwtable
define linkonce_odr hidden noundef i32 @_ZN12arrayOopDesc20header_size_in_bytesEv() #1 comdat align 2 {
  %1 = alloca i64, align 8
  %2 = call noundef i32 @_ZN12arrayOopDesc22length_offset_in_bytesEv()
  %3 = sext i32 %2 to i64
  %4 = add i64 %3, 4
  store i64 %4, ptr %1, align 8
  %5 = load i64, ptr %1, align 8
  %6 = trunc i64 %5 to i32
  ret i32 %6
}

; Function Attrs: mustprogress nounwind uwtable
define linkonce_odr hidden noundef i32 @_ZN5Klass19array_layout_helperEii9BasicTypei(i32 noundef %0, i32 noundef %1, i8 noundef zeroext %2, i32 noundef %3) #1 comdat align 2 {
  %5 = alloca i32, align 4
  %6 = alloca i32, align 4
  %7 = alloca i8, align 1
  %8 = alloca i32, align 4
  store i32 %0, ptr %5, align 4
  store i32 %1, ptr %6, align 4
  store i8 %2, ptr %7, align 1
  store i32 %3, ptr %8, align 4
  %9 = load i32, ptr %5, align 4
  %10 = shl i32 %9, 30
  %11 = load i32, ptr %6, align 4
  %12 = shl i32 %11, 16
  %13 = or i32 %10, %12
  %14 = load i8, ptr %7, align 1
  %15 = zext i8 %14 to i32
  %16 = shl i32 %15, 8
  %17 = or i32 %13, %16
  %18 = load i32, ptr %8, align 4
  %19 = shl i32 %18, 0
  %20 = or i32 %17, %19
  ret i32 %20
}

; Function Attrs: mustprogress nounwind uwtable
define linkonce_odr hidden noundef i32 @_Z10exact_log2l(i64 noundef %0) #1 comdat {
  %2 = alloca i64, align 8
  store i64 %0, ptr %2, align 8
  %3 = load i64, ptr %2, align 8
  %4 = call noundef i32 @_Z11log2i_exactImTnNSt9enable_ifIXcvbsr3std11is_integralIT_EE5valueEiE4typeELi0EEiS1_(i64 noundef %3)
  ret i32 %4
}

; Function Attrs: mustprogress nounwind uwtable
define linkonce_odr hidden noundef i32 @_Z15type2aelembytes9BasicTypeb(i8 noundef zeroext %0, i1 noundef zeroext %1) #1 comdat {
  %3 = alloca i8, align 1
  %4 = alloca i8, align 1
  store i8 %0, ptr %3, align 1
  %5 = zext i1 %1 to i8
  store i8 %5, ptr %4, align 1
  %6 = load i8, ptr %3, align 1
  %7 = zext i8 %6 to i64
  %8 = getelementptr inbounds [20 x i32], ptr @_type2aelembytes, i64 0, i64 %7
  %9 = load i32, ptr %8, align 4
  ret i32 %9
}

; Function Attrs: mustprogress nounwind uwtable
define linkonce_odr hidden noundef i32 @_ZN12arrayOopDesc20base_offset_in_bytesE9BasicType(i8 noundef zeroext %0) #1 comdat align 2 {
  %2 = alloca i8, align 1
  %3 = alloca i64, align 8
  store i8 %0, ptr %2, align 1
  %4 = call noundef i32 @_ZN12arrayOopDesc20header_size_in_bytesEv()
  %5 = sext i32 %4 to i64
  store i64 %5, ptr %3, align 8
  %6 = load i8, ptr %2, align 1
  %7 = call noundef zeroext i1 @_ZN12arrayOopDesc30element_type_should_be_alignedE9BasicType(i8 noundef zeroext %6)
  br i1 %7, label %8, label %11

8:                                                ; preds = %1
  %9 = load i64, ptr %3, align 8
  %10 = call noundef i64 @_Z8align_upImiTnNSt9enable_ifIXcvbsr3std11is_integralIT_EE5valueEiE4typeELi0EES1_S1_T0_(i64 noundef %9, i32 noundef 8)
  br label %13

11:                                               ; preds = %1
  %12 = load i64, ptr %3, align 8
  br label %13

13:                                               ; preds = %11, %8
  %14 = phi i64 [ %10, %8 ], [ %12, %11 ]
  %15 = trunc i64 %14 to i32
  ret i32 %15
}

; Function Attrs: mustprogress nounwind uwtable
define hidden noundef i32 @_ZN5Klass19array_layout_helperE9BasicType(i8 noundef zeroext %0) #1 align 2 {
  %2 = alloca i8, align 1
  %3 = alloca i32, align 4
  %4 = alloca i32, align 4
  %5 = alloca i8, align 1
  %6 = alloca i32, align 4
  %7 = alloca i32, align 4
  store i8 %0, ptr %2, align 1
  %8 = load i8, ptr %2, align 1
  %9 = call noundef i32 @_ZN12arrayOopDesc20base_offset_in_bytesE9BasicType(i8 noundef zeroext %8)
  store i32 %9, ptr %3, align 4
  %10 = load i8, ptr %2, align 1
  %11 = call noundef i32 @_Z15type2aelembytes9BasicTypeb(i8 noundef zeroext %10, i1 noundef zeroext false)
  store i32 %11, ptr %4, align 4
  %12 = load i8, ptr %2, align 1
  %13 = zext i8 %12 to i32
  %14 = icmp eq i32 %13, 12
  %15 = zext i1 %14 to i8
  store i8 %15, ptr %5, align 1
  %16 = load i8, ptr %5, align 1
  %17 = trunc i8 %16 to i1
  %18 = select i1 %17, i32 -2, i32 -1
  store i32 %18, ptr %6, align 4
  %19 = load i32, ptr %6, align 4
  %20 = load i32, ptr %3, align 4
  %21 = load i8, ptr %2, align 1
  %22 = load i32, ptr %4, align 4
  %23 = sext i32 %22 to i64
  %24 = call noundef i32 @_Z10exact_log2l(i64 noundef %23)
  %25 = call noundef i32 @_ZN5Klass19array_layout_helperEii9BasicTypei(i32 noundef %19, i32 noundef %20, i8 noundef zeroext %21, i32 noundef %24)
  store i32 %25, ptr %7, align 4
  %26 = load i32, ptr %7, align 4
  ret i32 %26
}