; Function Attrs: mustprogress nofree norecurse nosync nounwind willreturn memory(read, argmem: none, inaccessiblemem: none) uwtable
define hidden noundef i32 @_ZN5Klass19array_layout_helperE9BasicType(i8 noundef zeroext %0) local_unnamed_addr #9 align 2 {
  %2 = load i8, ptr @UseCompressedClassPointers, align 1
  %3 = trunc i8 %2 to i1
  %4 = select i1 %3, i32 16, i32 20
  %5 = and i8 %0, -2
  %or.cond.i.i = icmp eq i8 %5, 12
  br i1 %or.cond.i.i, label %6, label %_ZN12arrayOopDesc30element_type_should_be_alignedE9BasicType.exit.i

6:                                                ; preds = %1
  %7 = load i8, ptr @UseCompressedOops, align 1
  %8 = trunc i8 %7 to i1
  br i1 %8, label %_ZN12arrayOopDesc20base_offset_in_bytesE9BasicType.exit, label %9

_ZN12arrayOopDesc30element_type_should_be_alignedE9BasicType.exit.i: ; preds = %1
  switch i8 %0, label %_ZN12arrayOopDesc20base_offset_in_bytesE9BasicType.exit [
    i8 11, label %9
    i8 7, label %9
  ]

9:                                                ; preds = %_ZN12arrayOopDesc30element_type_should_be_alignedE9BasicType.exit.i, %_ZN12arrayOopDesc30element_type_should_be_alignedE9BasicType.exit.i, %6
  %narrow.i = add nuw nsw i32 %4, 7
  %10 = and i32 %narrow.i, 24
  br label %_ZN12arrayOopDesc20base_offset_in_bytesE9BasicType.exit

_ZN12arrayOopDesc20base_offset_in_bytesE9BasicType.exit: ; preds = %6, %_ZN12arrayOopDesc30element_type_should_be_alignedE9BasicType.exit.i, %9
  %11 = phi i32 [ %10, %9 ], [ %4, %_ZN12arrayOopDesc30element_type_should_be_alignedE9BasicType.exit.i ], [ %4, %6 ]
  %12 = zext i8 %0 to i64
  %13 = getelementptr inbounds [20 x i32], ptr @_type2aelembytes, i64 0, i64 %12
  %14 = load i32, ptr %13, align 4
  %15 = icmp eq i8 %0, 12
  %16 = select i1 %15, i32 -2147483648, i32 -1073741824
  %17 = tail call range(i32 0, 33) i32 @llvm.cttz.i32(i32 %14, i1 true)
  %18 = shl nuw nsw i32 %11, 16
  %19 = or disjoint i32 %18, %16
  %20 = zext i8 %0 to i32
  %21 = shl nuw nsw i32 %20, 8
  %22 = or disjoint i32 %19, %21
  %23 = or disjoint i32 %22, %17
  ret i32 %23
}